target datalayout = "e-m:e-p270:32:32-p271:32:32-p272:64:64-i64:64-i128:128-f80:128-n8:16:32:64-S128"
target triple = "x86_64-pc-linux-gnu"

; Function Attrs: nounwind uwtable
define dso_local zeroext i1 @RelationIdIsInInitFile(i32 noundef %0) #0 {
  %2 = alloca i1, align 1
  %3 = alloca i32, align 4
  store i32 %0, ptr %3, align 4
  %4 = load i32, ptr %3, align 4
  %5 = icmp eq i32 %4, 3592
  br i1 %5, label %15, label %6

6:                                                ; preds = %1
  %7 = load i32, ptr %3, align 4
  %8 = icmp eq i32 %7, 2701
  br i1 %8, label %15, label %9

9:                                                ; preds = %6
  %10 = load i32, ptr %3, align 4
  %11 = icmp eq i32 %10, 2671
  br i1 %11, label %15, label %12

12:                                               ; preds = %9
  %13 = load i32, ptr %3, align 4
  %14 = icmp eq i32 %13, 3593
  br i1 %14, label %15, label %16

15:                                               ; preds = %12, %9, %6, %1
  store i1 true, ptr %2, align 1
  br label %19

16:                                               ; preds = %12
  %17 = load i32, ptr %3, align 4
  %18 = call zeroext i1 @RelationSupportsSysCache(i32 noundef %17)
  store i1 %18, ptr %2, align 1
  br label %19

19:                                               ; preds = %16, %15
  %20 = load i1, ptr %2, align 1
  ret i1 %20
}