; Function Attrs: nounwind uwtable
define dso_local zeroext i1 @RelationIdIsInInitFile(i32 noundef %0) local_unnamed_addr #0 {
  switch i32 %0, label %2 [
    i32 3593, label %4
    i32 3592, label %4
    i32 2701, label %4
    i32 2671, label %4
  ]

2:                                                ; preds = %1
  %3 = tail call zeroext i1 @RelationSupportsSysCache(i32 noundef %0) #13
  br label %4

4:                                                ; preds = %1, %1, %1, %1, %2
  %.0 = phi i1 [ %3, %2 ], [ true, %1 ], [ true, %1 ], [ true, %1 ], [ true, %1 ]
  ret i1 %.0
}